target datalayout = "e-m:e-p270:32:32-p271:32:32-p272:64:64-i64:64-i128:128-f80:128-n8:16:32:64-S128"
target triple = "x86_64-pc-linux-gnu"

%struct.__loadu_ps = type { <4 x float> }
%struct.__storeu_ps = type { <4 x float> }
%struct.stbir__contributors = type { i32, i32 }
%struct.__mm_load_ss_struct = type { float }

; Function Attrs: alwaysinline nounwind uwtable
define available_externally void @_mm_storeu_ps(ptr noundef %0, <4 x float> noundef %1) #2 {
  %3 = alloca ptr, align 8
  %4 = alloca <4 x float>, align 16
  store ptr %0, ptr %3, align 8, !tbaa !21
  store <4 x float> %1, ptr %4, align 16, !tbaa !12
  %5 = load <4 x float>, ptr %4, align 16, !tbaa !12
  %6 = load ptr, ptr %3, align 8, !tbaa !21
  %7 = getelementptr inbounds nuw %struct.__storeu_ps, ptr %6, i32 0, i32 0
  store <4 x float> %5, ptr %7, align 1, !tbaa !12
  ret void
}

; Function Attrs: alwaysinline nounwind uwtable
define available_externally <4 x float> @_mm_load_ss(ptr noundef %0) #2 {
  %2 = alloca ptr, align 8
  %3 = alloca float, align 4
  %4 = alloca <4 x float>, align 16
  store ptr %0, ptr %2, align 8, !tbaa !21
  call void @llvm.lifetime.start.p0(i64 4, ptr %3) #12
  %5 = load ptr, ptr %2, align 8, !tbaa !21
  %6 = getelementptr inbounds nuw %struct.__mm_load_ss_struct, ptr %5, i32 0, i32 0
  %7 = load float, ptr %6, align 1, !tbaa !12
  store float %7, ptr %3, align 4, !tbaa !29
  %8 = load float, ptr %3, align 4, !tbaa !29
  %9 = insertelement <4 x float> poison, float %8, i32 0
  %10 = insertelement <4 x float> %9, float 0.000000e+00, i32 1
  %11 = insertelement <4 x float> %10, float 0.000000e+00, i32 2
  %12 = insertelement <4 x float> %11, float 0.000000e+00, i32 3
  store <4 x float> %12, ptr %4, align 16, !tbaa !12
  %13 = load <4 x float>, ptr %4, align 16, !tbaa !12
  call void @llvm.lifetime.end.p0(i64 4, ptr %3) #12
  ret <4 x float> %13
}

; Function Attrs: alwaysinline nounwind uwtable
define available_externally <4 x float> @_mm_add_ps(<4 x float> noundef %0, <4 x float> noundef %1) #2 {
  %3 = alloca <4 x float>, align 16
  %4 = alloca <4 x float>, align 16
  store <4 x float> %0, ptr %3, align 16, !tbaa !12
  store <4 x float> %1, ptr %4, align 16, !tbaa !12
  %5 = load <4 x float>, ptr %3, align 16, !tbaa !12
  %6 = load <4 x float>, ptr %4, align 16, !tbaa !12
  %7 = fadd <4 x float> %5, %6
  ret <4 x float> %7
}

; Function Attrs: alwaysinline nounwind uwtable
define available_externally <4 x float> @_mm_mul_ps(<4 x float> noundef %0, <4 x float> noundef %1) #2 {
  %3 = alloca <4 x float>, align 16
  %4 = alloca <4 x float>, align 16
  store <4 x float> %0, ptr %3, align 16, !tbaa !12
  store <4 x float> %1, ptr %4, align 16, !tbaa !12
  %5 = load <4 x float>, ptr %3, align 16, !tbaa !12
  %6 = load <4 x float>, ptr %4, align 16, !tbaa !12
  %7 = fmul <4 x float> %5, %6
  ret <4 x float> %7
}

; Function Attrs: alwaysinline nounwind uwtable
define available_externally <4 x float> @_mm_castsi128_ps(<2 x i64> noundef %0) #2 {
  %2 = alloca <2 x i64>, align 16
  store <2 x i64> %0, ptr %2, align 16, !tbaa !12
  %3 = load <2 x i64>, ptr %2, align 16, !tbaa !12
  %4 = bitcast <2 x i64> %3 to <4 x float>
  ret <4 x float> %4
}

; Function Attrs: alwaysinline nounwind uwtable
define available_externally <2 x i64> @_mm_castps_si128(<4 x float> noundef %0) #2 {
  %2 = alloca <4 x float>, align 16
  store <4 x float> %0, ptr %2, align 16, !tbaa !12
  %3 = load <4 x float>, ptr %2, align 16, !tbaa !12
  %4 = bitcast <4 x float> %3 to <2 x i64>
  ret <2 x i64> %4
}

; Function Attrs: alwaysinline nounwind uwtable
define available_externally <4 x float> @_mm_loadu_ps(ptr noundef %0) #2 {
  %2 = alloca ptr, align 8
  store ptr %0, ptr %2, align 8, !tbaa !21
  %3 = load ptr, ptr %2, align 8, !tbaa !21
  %4 = getelementptr inbounds nuw %struct.__loadu_ps, ptr %3, i32 0, i32 0
  %5 = load <4 x float>, ptr %4, align 1, !tbaa !12
  ret <4 x float> %5
}

; Function Attrs: nounwind uwtable
define void @stbir__horizontal_gather_7_channels_with_5_coeffs(ptr noundef %0, i32 noundef %1, ptr noundef %2, ptr noundef %3, ptr noundef %4, i32 noundef %5) #0 {
  %7 = alloca ptr, align 8
  %8 = alloca i32, align 4
  %9 = alloca ptr, align 8
  %10 = alloca ptr, align 8
  %11 = alloca ptr, align 8
  %12 = alloca i32, align 4
  %13 = alloca ptr, align 8
  %14 = alloca ptr, align 8
  %15 = alloca ptr, align 8
  %16 = alloca ptr, align 8
  %17 = alloca <4 x float>, align 16
  %18 = alloca <4 x float>, align 16
  %19 = alloca <4 x float>, align 16
  %20 = alloca <4 x float>, align 16
  %21 = alloca <4 x float>, align 16
  %22 = alloca <4 x float>, align 16
  store ptr %0, ptr %7, align 8, !tbaa !21
  store i32 %1, ptr %8, align 4, !tbaa !26
  store ptr %2, ptr %9, align 8, !tbaa !21
  store ptr %3, ptr %10, align 8, !tbaa !3
  store ptr %4, ptr %11, align 8, !tbaa !21
  store i32 %5, ptr %12, align 4, !tbaa !26
  call void @llvm.lifetime.start.p0(i64 8, ptr %13) #12
  %23 = load ptr, ptr %7, align 8, !tbaa !21
  %24 = load i32, ptr %8, align 4, !tbaa !26
  %25 = mul i32 %24, 7
  %26 = zext i32 %25 to i64
  %27 = getelementptr inbounds nuw float, ptr %23, i64 %26
  store ptr %27, ptr %13, align 8, !tbaa !21
  call void @llvm.lifetime.start.p0(i64 8, ptr %14) #12
  %28 = load ptr, ptr %7, align 8, !tbaa !21
  store ptr %28, ptr %14, align 8, !tbaa !21
  br label %29

29:                                               ; preds = %156, %6
  call void @llvm.lifetime.start.p0(i64 8, ptr %15) #12
  %30 = load ptr, ptr %9, align 8, !tbaa !21
  %31 = load ptr, ptr %10, align 8, !tbaa !3
  %32 = getelementptr inbounds nuw %struct.stbir__contributors, ptr %31, i32 0, i32 0
  %33 = load i32, ptr %32, align 4, !tbaa !41
  %34 = mul nsw i32 %33, 7
  %35 = sext i32 %34 to i64
  %36 = getelementptr inbounds float, ptr %30, i64 %35
  store ptr %36, ptr %15, align 8, !tbaa !21
  call void @llvm.lifetime.start.p0(i64 8, ptr %16) #12
  %37 = load ptr, ptr %11, align 8, !tbaa !21
  store ptr %37, ptr %16, align 8, !tbaa !21
  call void @llvm.lifetime.start.p0(i64 16, ptr %17) #12
  call void @llvm.lifetime.start.p0(i64 16, ptr %18) #12
  call void @llvm.lifetime.start.p0(i64 16, ptr %19) #12
  call void @llvm.lifetime.start.p0(i64 16, ptr %20) #12
  call void @llvm.lifetime.start.p0(i64 16, ptr %21) #12
  call void @llvm.lifetime.start.p0(i64 16, ptr %22) #12
  %38 = load ptr, ptr %15, align 8, !tbaa !21
  call void asm sideeffect "", "r,~{dirflag},~{fpsr},~{flags}"(ptr %38) #12, !srcloc !749
  %39 = load ptr, ptr %16, align 8, !tbaa !21
  %40 = call <4 x float> @_mm_loadu_ps(ptr noundef %39)
  store <4 x float> %40, ptr %22, align 16, !tbaa !12
  %41 = load <4 x float>, ptr %22, align 16, !tbaa !12
  %42 = call <2 x i64> @_mm_castps_si128(<4 x float> noundef %41)
  %43 = bitcast <2 x i64> %42 to <4 x i32>
  %44 = shufflevector <4 x i32> %43, <4 x i32> poison, <4 x i32> zeroinitializer
  %45 = bitcast <4 x i32> %44 to <2 x i64>
  %46 = call <4 x float> @_mm_castsi128_ps(<2 x i64> noundef %45)
  store <4 x float> %46, ptr %21, align 16, !tbaa !12
  %47 = load <4 x float>, ptr %21, align 16, !tbaa !12
  %48 = load ptr, ptr %15, align 8, !tbaa !21
  %49 = call <4 x float> @_mm_loadu_ps(ptr noundef %48)
  %50 = call <4 x float> @_mm_mul_ps(<4 x float> noundef %47, <4 x float> noundef %49)
  store <4 x float> %50, ptr %17, align 16, !tbaa !12
  %51 = load <4 x float>, ptr %21, align 16, !tbaa !12
  %52 = load ptr, ptr %15, align 8, !tbaa !21
  %53 = getelementptr inbounds float, ptr %52, i64 3
  %54 = call <4 x float> @_mm_loadu_ps(ptr noundef %53)
  %55 = call <4 x float> @_mm_mul_ps(<4 x float> noundef %51, <4 x float> noundef %54)
  store <4 x float> %55, ptr %18, align 16, !tbaa !12
  %56 = load <4 x float>, ptr %22, align 16, !tbaa !12
  %57 = call <2 x i64> @_mm_castps_si128(<4 x float> noundef %56)
  %58 = bitcast <2 x i64> %57 to <4 x i32>
  %59 = shufflevector <4 x i32> %58, <4 x i32> poison, <4 x i32> <i32 1, i32 1, i32 1, i32 1>
  %60 = bitcast <4 x i32> %59 to <2 x i64>
  %61 = call <4 x float> @_mm_castsi128_ps(<2 x i64> noundef %60)
  store <4 x float> %61, ptr %21, align 16, !tbaa !12
  %62 = load <4 x float>, ptr %21, align 16, !tbaa !12
  %63 = load ptr, ptr %15, align 8, !tbaa !21
  %64 = getelementptr inbounds float, ptr %63, i64 7
  %65 = call <4 x float> @_mm_loadu_ps(ptr noundef %64)
  %66 = call <4 x float> @_mm_mul_ps(<4 x float> noundef %62, <4 x float> noundef %65)
  store <4 x float> %66, ptr %19, align 16, !tbaa !12
  %67 = load <4 x float>, ptr %21, align 16, !tbaa !12
  %68 = load ptr, ptr %15, align 8, !tbaa !21
  %69 = getelementptr inbounds float, ptr %68, i64 10
  %70 = call <4 x float> @_mm_loadu_ps(ptr noundef %69)
  %71 = call <4 x float> @_mm_mul_ps(<4 x float> noundef %67, <4 x float> noundef %70)
  store <4 x float> %71, ptr %20, align 16, !tbaa !12
  %72 = load <4 x float>, ptr %22, align 16, !tbaa !12
  %73 = call <2 x i64> @_mm_castps_si128(<4 x float> noundef %72)
  %74 = bitcast <2 x i64> %73 to <4 x i32>
  %75 = shufflevector <4 x i32> %74, <4 x i32> poison, <4 x i32> <i32 2, i32 2, i32 2, i32 2>
  %76 = bitcast <4 x i32> %75 to <2 x i64>
  %77 = call <4 x float> @_mm_castsi128_ps(<2 x i64> noundef %76)
  store <4 x float> %77, ptr %21, align 16, !tbaa !12
  %78 = load <4 x float>, ptr %17, align 16, !tbaa !12
  %79 = load <4 x float>, ptr %21, align 16, !tbaa !12
  %80 = load ptr, ptr %15, align 8, !tbaa !21
  %81 = getelementptr inbounds float, ptr %80, i64 14
  %82 = call <4 x float> @_mm_loadu_ps(ptr noundef %81)
  %83 = call <4 x float> @_mm_mul_ps(<4 x float> noundef %79, <4 x float> noundef %82)
  %84 = call <4 x float> @_mm_add_ps(<4 x float> noundef %78, <4 x float> noundef %83)
  store <4 x float> %84, ptr %17, align 16, !tbaa !12
  %85 = load <4 x float>, ptr %18, align 16, !tbaa !12
  %86 = load <4 x float>, ptr %21, align 16, !tbaa !12
  %87 = load ptr, ptr %15, align 8, !tbaa !21
  %88 = getelementptr inbounds float, ptr %87, i64 17
  %89 = call <4 x float> @_mm_loadu_ps(ptr noundef %88)
  %90 = call <4 x float> @_mm_mul_ps(<4 x float> noundef %86, <4 x float> noundef %89)
  %91 = call <4 x float> @_mm_add_ps(<4 x float> noundef %85, <4 x float> noundef %90)
  store <4 x float> %91, ptr %18, align 16, !tbaa !12
  %92 = load <4 x float>, ptr %22, align 16, !tbaa !12
  %93 = call <2 x i64> @_mm_castps_si128(<4 x float> noundef %92)
  %94 = bitcast <2 x i64> %93 to <4 x i32>
  %95 = shufflevector <4 x i32> %94, <4 x i32> poison, <4 x i32> <i32 3, i32 3, i32 3, i32 3>
  %96 = bitcast <4 x i32> %95 to <2 x i64>
  %97 = call <4 x float> @_mm_castsi128_ps(<2 x i64> noundef %96)
  store <4 x float> %97, ptr %21, align 16, !tbaa !12
  %98 = load <4 x float>, ptr %19, align 16, !tbaa !12
  %99 = load <4 x float>, ptr %21, align 16, !tbaa !12
  %100 = load ptr, ptr %15, align 8, !tbaa !21
  %101 = getelementptr inbounds float, ptr %100, i64 21
  %102 = call <4 x float> @_mm_loadu_ps(ptr noundef %101)
  %103 = call <4 x float> @_mm_mul_ps(<4 x float> noundef %99, <4 x float> noundef %102)
  %104 = call <4 x float> @_mm_add_ps(<4 x float> noundef %98, <4 x float> noundef %103)
  store <4 x float> %104, ptr %19, align 16, !tbaa !12
  %105 = load <4 x float>, ptr %20, align 16, !tbaa !12
  %106 = load <4 x float>, ptr %21, align 16, !tbaa !12
  %107 = load ptr, ptr %15, align 8, !tbaa !21
  %108 = getelementptr inbounds float, ptr %107, i64 24
  %109 = call <4 x float> @_mm_loadu_ps(ptr noundef %108)
  %110 = call <4 x float> @_mm_mul_ps(<4 x float> noundef %106, <4 x float> noundef %109)
  %111 = call <4 x float> @_mm_add_ps(<4 x float> noundef %105, <4 x float> noundef %110)
  store <4 x float> %111, ptr %20, align 16, !tbaa !12
  %112 = load ptr, ptr %15, align 8, !tbaa !21
  call void asm sideeffect "", "r,~{dirflag},~{fpsr},~{flags}"(ptr %112) #12, !srcloc !750
  %113 = load ptr, ptr %16, align 8, !tbaa !21
  %114 = getelementptr inbounds float, ptr %113, i64 4
  %115 = call <4 x float> @_mm_load_ss(ptr noundef %114)
  store <4 x float> %115, ptr %21, align 16, !tbaa !12
  %116 = load <4 x float>, ptr %21, align 16, !tbaa !12
  %117 = call <2 x i64> @_mm_castps_si128(<4 x float> noundef %116)
  %118 = bitcast <2 x i64> %117 to <4 x i32>
  %119 = shufflevector <4 x i32> %118, <4 x i32> poison, <4 x i32> zeroinitializer
  %120 = bitcast <4 x i32> %119 to <2 x i64>
  %121 = call <4 x float> @_mm_castsi128_ps(<2 x i64> noundef %120)
  store <4 x float> %121, ptr %21, align 16, !tbaa !12
  %122 = load <4 x float>, ptr %17, align 16, !tbaa !12
  %123 = load <4 x float>, ptr %21, align 16, !tbaa !12
  %124 = load ptr, ptr %15, align 8, !tbaa !21
  %125 = getelementptr inbounds float, ptr %124, i64 28
  %126 = call <4 x float> @_mm_loadu_ps(ptr noundef %125)
  %127 = call <4 x float> @_mm_mul_ps(<4 x float> noundef %123, <4 x float> noundef %126)
  %128 = call <4 x float> @_mm_add_ps(<4 x float> noundef %122, <4 x float> noundef %127)
  store <4 x float> %128, ptr %17, align 16, !tbaa !12
  %129 = load <4 x float>, ptr %18, align 16, !tbaa !12
  %130 = load <4 x float>, ptr %21, align 16, !tbaa !12
  %131 = load ptr, ptr %15, align 8, !tbaa !21
  %132 = getelementptr inbounds float, ptr %131, i64 28
  %133 = getelementptr inbounds float, ptr %132, i64 3
  %134 = call <4 x float> @_mm_loadu_ps(ptr noundef %133)
  %135 = call <4 x float> @_mm_mul_ps(<4 x float> noundef %130, <4 x float> noundef %134)
  %136 = call <4 x float> @_mm_add_ps(<4 x float> noundef %129, <4 x float> noundef %135)
  store <4 x float> %136, ptr %18, align 16, !tbaa !12
  %137 = load <4 x float>, ptr %17, align 16, !tbaa !12
  %138 = load <4 x float>, ptr %19, align 16, !tbaa !12
  %139 = call <4 x float> @_mm_add_ps(<4 x float> noundef %137, <4 x float> noundef %138)
  store <4 x float> %139, ptr %17, align 16, !tbaa !12
  %140 = load <4 x float>, ptr %18, align 16, !tbaa !12
  %141 = load <4 x float>, ptr %20, align 16, !tbaa !12
  %142 = call <4 x float> @_mm_add_ps(<4 x float> noundef %140, <4 x float> noundef %141)
  store <4 x float> %142, ptr %18, align 16, !tbaa !12
  %143 = load ptr, ptr %14, align 8, !tbaa !21
  %144 = getelementptr inbounds float, ptr %143, i64 3
  %145 = load <4 x float>, ptr %18, align 16, !tbaa !12
  call void @_mm_storeu_ps(ptr noundef %144, <4 x float> noundef %145)
  %146 = load ptr, ptr %14, align 8, !tbaa !21
  %147 = load <4 x float>, ptr %17, align 16, !tbaa !12
  call void @_mm_storeu_ps(ptr noundef %146, <4 x float> noundef %147)
  %148 = load i32, ptr %12, align 4, !tbaa !26
  %149 = load ptr, ptr %11, align 8, !tbaa !21
  %150 = sext i32 %148 to i64
  %151 = getelementptr inbounds float, ptr %149, i64 %150
  store ptr %151, ptr %11, align 8, !tbaa !21
  %152 = load ptr, ptr %10, align 8, !tbaa !3
  %153 = getelementptr inbounds nuw %struct.stbir__contributors, ptr %152, i32 1
  store ptr %153, ptr %10, align 8, !tbaa !3
  %154 = load ptr, ptr %14, align 8, !tbaa !21
  %155 = getelementptr inbounds float, ptr %154, i64 7
  store ptr %155, ptr %14, align 8, !tbaa !21
  call void @llvm.lifetime.end.p0(i64 16, ptr %22) #12
  call void @llvm.lifetime.end.p0(i64 16, ptr %21) #12
  call void @llvm.lifetime.end.p0(i64 16, ptr %20) #12
  call void @llvm.lifetime.end.p0(i64 16, ptr %19) #12
  call void @llvm.lifetime.end.p0(i64 16, ptr %18) #12
  call void @llvm.lifetime.end.p0(i64 16, ptr %17) #12
  call void @llvm.lifetime.end.p0(i64 8, ptr %16) #12
  call void @llvm.lifetime.end.p0(i64 8, ptr %15) #12
  br label %156

156:                                              ; preds = %29
  %157 = load ptr, ptr %14, align 8, !tbaa !21
  %158 = load ptr, ptr %13, align 8, !tbaa !21
  %159 = icmp ult ptr %157, %158
  br i1 %159, label %29, label %160, !llvm.loop !751

160:                                              ; preds = %156
  call void @llvm.lifetime.end.p0(i64 8, ptr %14) #12
  call void @llvm.lifetime.end.p0(i64 8, ptr %13) #12
  ret void
}