; Function Attrs: nounwind uwtable
define void @stbir__horizontal_gather_7_channels_with_5_coeffs(ptr noundef writeonly captures(address) %0, i32 noundef %1, ptr noundef %2, ptr noundef readonly captures(none) %3, ptr noundef readonly captures(none) %4, i32 noundef %5) #0 {
  %7 = mul i32 %1, 7
  %8 = zext i32 %7 to i64
  %9 = getelementptr inbounds nuw float, ptr %0, i64 %8
  %10 = sext i32 %5 to i64
  br label %11

11:                                               ; preds = %11, %6
  %.055 = phi ptr [ %0, %6 ], [ %65, %11 ]
  %.054 = phi ptr [ %4, %6 ], [ %63, %11 ]
  %.0 = phi ptr [ %3, %6 ], [ %64, %11 ]
  %12 = load i32, ptr %.0, align 4, !tbaa !34
  %13 = mul nsw i32 %12, 7
  %14 = sext i32 %13 to i64
  %15 = getelementptr inbounds float, ptr %2, i64 %14
  tail call void asm sideeffect "", "r,~{dirflag},~{fpsr},~{flags}"(ptr %15) #24, !srcloc !660
  %16 = load <4 x float>, ptr %.054, align 1, !tbaa !4
  %17 = shufflevector <4 x float> %16, <4 x float> poison, <4 x i32> zeroinitializer
  %18 = load <4 x float>, ptr %15, align 1, !tbaa !4
  %19 = fmul <4 x float> %18, %17
  %20 = getelementptr inbounds nuw i8, ptr %15, i64 12
  %21 = load <4 x float>, ptr %20, align 1, !tbaa !4
  %22 = fmul <4 x float> %17, %21
  %23 = shufflevector <4 x float> %16, <4 x float> poison, <4 x i32> <i32 1, i32 1, i32 1, i32 1>
  %24 = getelementptr inbounds nuw i8, ptr %15, i64 28
  %25 = load <4 x float>, ptr %24, align 1, !tbaa !4
  %26 = fmul <4 x float> %23, %25
  %27 = getelementptr inbounds nuw i8, ptr %15, i64 40
  %28 = load <4 x float>, ptr %27, align 1, !tbaa !4
  %29 = fmul <4 x float> %23, %28
  %30 = shufflevector <4 x float> %16, <4 x float> poison, <4 x i32> <i32 2, i32 2, i32 2, i32 2>
  %31 = getelementptr inbounds nuw i8, ptr %15, i64 56
  %32 = load <4 x float>, ptr %31, align 1, !tbaa !4
  %33 = fmul <4 x float> %30, %32
  %34 = fadd <4 x float> %19, %33
  %35 = getelementptr inbounds nuw i8, ptr %15, i64 68
  %36 = load <4 x float>, ptr %35, align 1, !tbaa !4
  %37 = fmul <4 x float> %30, %36
  %38 = fadd <4 x float> %22, %37
  %39 = shufflevector <4 x float> %16, <4 x float> poison, <4 x i32> <i32 3, i32 3, i32 3, i32 3>
  %40 = getelementptr inbounds nuw i8, ptr %15, i64 84
  %41 = load <4 x float>, ptr %40, align 1, !tbaa !4
  %42 = fmul <4 x float> %39, %41
  %43 = fadd <4 x float> %26, %42
  %44 = getelementptr inbounds nuw i8, ptr %15, i64 96
  %45 = load <4 x float>, ptr %44, align 1, !tbaa !4
  %46 = fmul <4 x float> %39, %45
  %47 = fadd <4 x float> %29, %46
  tail call void asm sideeffect "", "r,~{dirflag},~{fpsr},~{flags}"(ptr nonnull %15) #24, !srcloc !661
  %48 = getelementptr inbounds nuw i8, ptr %.054, i64 16
  %49 = load float, ptr %48, align 1, !tbaa !4
  %50 = insertelement <4 x float> poison, float %49, i64 0
  %51 = shufflevector <4 x float> %50, <4 x float> poison, <4 x i32> zeroinitializer
  %52 = getelementptr inbounds nuw i8, ptr %15, i64 112
  %53 = load <4 x float>, ptr %52, align 1, !tbaa !4
  %54 = fmul <4 x float> %53, %51
  %55 = fadd <4 x float> %34, %54
  %56 = getelementptr inbounds nuw i8, ptr %15, i64 124
  %57 = load <4 x float>, ptr %56, align 1, !tbaa !4
  %58 = fmul <4 x float> %51, %57
  %59 = fadd <4 x float> %38, %58
  %60 = fadd <4 x float> %43, %55
  %61 = fadd <4 x float> %47, %59
  %62 = getelementptr inbounds nuw i8, ptr %.055, i64 12
  store <4 x float> %61, ptr %62, align 1, !tbaa !4
  store <4 x float> %60, ptr %.055, align 1, !tbaa !4
  %63 = getelementptr inbounds float, ptr %.054, i64 %10
  %64 = getelementptr inbounds nuw i8, ptr %.0, i64 8
  %65 = getelementptr inbounds nuw i8, ptr %.055, i64 28
  %66 = icmp ult ptr %65, %9
  br i1 %66, label %11, label %67, !llvm.loop !662

67:                                               ; preds = %11
  ret void
}